; Function Attrs: nounwind uwtable
define hidden nonnull ptr @lj_lib_checkany(ptr noundef %0, i32 noundef %1) local_unnamed_addr #0 {
  %3 = getelementptr inbounds nuw i8, ptr %0, i64 32
  %4 = load ptr, ptr %3, align 8, !tbaa !17
  %5 = sext i32 %1 to i64
  %6 = getelementptr inbounds %union.TValue, ptr %4, i64 %5
  %7 = getelementptr inbounds i8, ptr %6, i64 -8
  %8 = getelementptr inbounds nuw i8, ptr %0, i64 40
  %9 = load ptr, ptr %8, align 8, !tbaa !16
  %.not = icmp ult ptr %7, %9
  br i1 %.not, label %11, label %10

10:                                               ; preds = %2
  tail call void @lj_err_arg(ptr noundef nonnull %0, i32 noundef %1, i32 noundef 551) #9
  unreachable

11:                                               ; preds = %2
  ret ptr %7
}